; Function Attrs: nounwind uwtable
define ptr @l___private_Lean_Elab_GuardMsgs_0__Lean_Elab_Tactic_GuardMsgs_messageToStringWithoutPos___lambda__4(ptr noundef %0, ptr noundef %1, ptr readnone captures(none) %2, ptr noundef %3) local_unnamed_addr #0 {
  %5 = load ptr, ptr @l___private_Lean_Elab_GuardMsgs_0__Lean_Elab_Tactic_GuardMsgs_messageToStringWithoutPos___lambda__2___closed__2, align 8, !tbaa !4
  %6 = tail call zeroext i8 @l_String_isPrefixOf(ptr noundef %5, ptr noundef %1) #7
  %7 = icmp eq i8 %6, 0
  br i1 %7, label %8, label %29

8:                                                ; preds = %4
  %9 = load ptr, ptr @l___private_Lean_Elab_GuardMsgs_0__Lean_Elab_Tactic_GuardMsgs_messageToStringWithoutPos___lambda__4___closed__1, align 8, !tbaa !4
  %10 = tail call ptr @lean_string_append(ptr noundef %9, ptr noundef %1) #7
  %11 = load ptr, ptr @l___private_Lean_Elab_GuardMsgs_0__Lean_Elab_Tactic_GuardMsgs_messageToStringWithoutPos___lambda__3___closed__1, align 8, !tbaa !4
  %12 = tail call zeroext i8 @l_Lean_Message_isTrace(ptr noundef %0) #7
  %13 = icmp eq i8 %12, 0
  br i1 %13, label %14, label %l___private_Lean_Elab_GuardMsgs_0__Lean_Elab_Tactic_GuardMsgs_messageToStringWithoutPos___lambda__3.exit

14:                                               ; preds = %8
  %15 = getelementptr inbounds nuw i8, ptr %0, i64 49
  %16 = load i8, ptr %15, align 1, !tbaa !14
  %switch.selectcmp.i = icmp eq i8 %16, 1
  %switch.select.i = select i1 %switch.selectcmp.i, ptr @l___private_Lean_Elab_GuardMsgs_0__Lean_Elab_Tactic_GuardMsgs_messageToStringWithoutPos___lambda__3___closed__3, ptr @l___private_Lean_Elab_GuardMsgs_0__Lean_Elab_Tactic_GuardMsgs_messageToStringWithoutPos___lambda__3___closed__4
  %switch.selectcmp33.i = icmp eq i8 %16, 0
  %switch.select34.i = select i1 %switch.selectcmp33.i, ptr @l___private_Lean_Elab_GuardMsgs_0__Lean_Elab_Tactic_GuardMsgs_messageToStringWithoutPos___lambda__3___closed__2, ptr %switch.select.i
  br label %l___private_Lean_Elab_GuardMsgs_0__Lean_Elab_Tactic_GuardMsgs_messageToStringWithoutPos___lambda__3.exit

l___private_Lean_Elab_GuardMsgs_0__Lean_Elab_Tactic_GuardMsgs_messageToStringWithoutPos___lambda__3.exit: ; preds = %8, %14
  %l___private_Lean_Elab_GuardMsgs_0__Lean_Elab_Tactic_GuardMsgs_messageToStringWithoutPos___lambda__3___closed__2.sink.i = phi ptr [ %switch.select34.i, %14 ], [ @l___private_Lean_Elab_GuardMsgs_0__Lean_Elab_Tactic_GuardMsgs_messageToStringWithoutPos___lambda__3___closed__5, %8 ]
  %17 = load ptr, ptr %l___private_Lean_Elab_GuardMsgs_0__Lean_Elab_Tactic_GuardMsgs_messageToStringWithoutPos___lambda__3___closed__2.sink.i, align 8, !tbaa !4
  %18 = tail call ptr @lean_string_append(ptr noundef %17, ptr noundef %10) #7
  %19 = tail call ptr @lean_apply_3(ptr noundef %11, ptr noundef %18, ptr noundef nonnull inttoptr (i64 1 to ptr), ptr noundef %3) #7
  %20 = ptrtoint ptr %10 to i64
  %21 = and i64 %20, 1
  %.not = icmp eq i64 %21, 0
  br i1 %.not, label %22, label %lean_dec.exit

22:                                               ; preds = %l___private_Lean_Elab_GuardMsgs_0__Lean_Elab_Tactic_GuardMsgs_messageToStringWithoutPos___lambda__3.exit
  %23 = load i32, ptr %10, align 4, !tbaa !8
  %24 = icmp sgt i32 %23, 1
  br i1 %24, label %25, label %27, !prof !13

25:                                               ; preds = %22
  %26 = add nsw i32 %23, -1
  store i32 %26, ptr %10, align 4, !tbaa !8
  br label %lean_dec.exit

27:                                               ; preds = %22
  %.not.i = icmp eq i32 %23, 0
  br i1 %.not.i, label %lean_dec.exit, label %28

28:                                               ; preds = %27
  tail call void @lean_dec_ref_cold(ptr noundef nonnull %10) #7
  br label %lean_dec.exit

29:                                               ; preds = %4
  %30 = load ptr, ptr @l___private_Lean_Elab_GuardMsgs_0__Lean_Elab_Tactic_GuardMsgs_messageToStringWithoutPos___lambda__3___closed__1, align 8, !tbaa !4
  %31 = tail call zeroext i8 @l_Lean_Message_isTrace(ptr noundef %0) #7
  %32 = icmp eq i8 %31, 0
  br i1 %32, label %33, label %l___private_Lean_Elab_GuardMsgs_0__Lean_Elab_Tactic_GuardMsgs_messageToStringWithoutPos___lambda__3.exit21

33:                                               ; preds = %29
  %34 = getelementptr inbounds nuw i8, ptr %0, i64 49
  %35 = load i8, ptr %34, align 1, !tbaa !14
  %switch.selectcmp.i17 = icmp eq i8 %35, 1
  %switch.select.i18 = select i1 %switch.selectcmp.i17, ptr @l___private_Lean_Elab_GuardMsgs_0__Lean_Elab_Tactic_GuardMsgs_messageToStringWithoutPos___lambda__3___closed__3, ptr @l___private_Lean_Elab_GuardMsgs_0__Lean_Elab_Tactic_GuardMsgs_messageToStringWithoutPos___lambda__3___closed__4
  %switch.selectcmp33.i19 = icmp eq i8 %35, 0
  %switch.select34.i20 = select i1 %switch.selectcmp33.i19, ptr @l___private_Lean_Elab_GuardMsgs_0__Lean_Elab_Tactic_GuardMsgs_messageToStringWithoutPos___lambda__3___closed__2, ptr %switch.select.i18
  br label %l___private_Lean_Elab_GuardMsgs_0__Lean_Elab_Tactic_GuardMsgs_messageToStringWithoutPos___lambda__3.exit21

l___private_Lean_Elab_GuardMsgs_0__Lean_Elab_Tactic_GuardMsgs_messageToStringWithoutPos___lambda__3.exit21: ; preds = %29, %33
  %l___private_Lean_Elab_GuardMsgs_0__Lean_Elab_Tactic_GuardMsgs_messageToStringWithoutPos___lambda__3___closed__2.sink.i16 = phi ptr [ %switch.select34.i20, %33 ], [ @l___private_Lean_Elab_GuardMsgs_0__Lean_Elab_Tactic_GuardMsgs_messageToStringWithoutPos___lambda__3___closed__5, %29 ]
  %36 = load ptr, ptr %l___private_Lean_Elab_GuardMsgs_0__Lean_Elab_Tactic_GuardMsgs_messageToStringWithoutPos___lambda__3___closed__2.sink.i16, align 8, !tbaa !4
  %37 = tail call ptr @lean_string_append(ptr noundef %36, ptr noundef %1) #7
  %38 = tail call ptr @lean_apply_3(ptr noundef %30, ptr noundef %37, ptr noundef nonnull inttoptr (i64 1 to ptr), ptr noundef %3) #7
  br label %lean_dec.exit

lean_dec.exit:                                    ; preds = %l___private_Lean_Elab_GuardMsgs_0__Lean_Elab_Tactic_GuardMsgs_messageToStringWithoutPos___lambda__3.exit, %25, %27, %28, %l___private_Lean_Elab_GuardMsgs_0__Lean_Elab_Tactic_GuardMsgs_messageToStringWithoutPos___lambda__3.exit21
  %.0 = phi ptr [ %38, %l___private_Lean_Elab_GuardMsgs_0__Lean_Elab_Tactic_GuardMsgs_messageToStringWithoutPos___lambda__3.exit21 ], [ %19, %28 ], [ %19, %27 ], [ %19, %25 ], [ %19, %l___private_Lean_Elab_GuardMsgs_0__Lean_Elab_Tactic_GuardMsgs_messageToStringWithoutPos___lambda__3.exit ]
  ret ptr %.0
}